                              1 ;--------------------------------------------------------
                              2 ; File Created by SDCC : free open source ANSI-C Compiler
                              3 ; Version 3.6.8 #9946 (CYGWIN)
                              4 ;--------------------------------------------------------
                              5 	.module main
                              6 	.optsdcc -mz80
                              7 	
                              8 ;--------------------------------------------------------
                              9 ; Public variables in this module
                             10 ;--------------------------------------------------------
                             11 	.globl _main
                             12 	.globl _init
                             13 	.globl _mover_personaje
                             14 	.globl _dibujar_personaje
                             15 	.globl _cpct_getScreenPtr
                             16 	.globl _cpct_setPALColour
                             17 	.globl _cpct_setPalette
                             18 	.globl _cpct_waitVSYNC
                             19 	.globl _cpct_setVideoMode
                             20 	.globl _cpct_drawSprite
                             21 	.globl _cpct_isAnyKeyPressed_f
                             22 	.globl _cpct_isKeyPressed
                             23 	.globl _cpct_scanKeyboard_if
                             24 	.globl _cpct_memset
                             25 	.globl _cpct_disableFirmware
                             26 	.globl _prota
                             27 ;--------------------------------------------------------
                             28 ; special function registers
                             29 ;--------------------------------------------------------
                             30 ;--------------------------------------------------------
                             31 ; ram data
                             32 ;--------------------------------------------------------
                             33 	.area _DATA
   0000                      34 _prota::
   0000                      35 	.ds 5
                             36 ;--------------------------------------------------------
                             37 ; ram data
                             38 ;--------------------------------------------------------
                             39 	.area _INITIALIZED
                             40 ;--------------------------------------------------------
                             41 ; absolute external ram data
                             42 ;--------------------------------------------------------
                             43 	.area _DABS (ABS)
                             44 ;--------------------------------------------------------
                             45 ; global & static initialisations
                             46 ;--------------------------------------------------------
                             47 	.area _HOME
                             48 	.area _GSINIT
                             49 	.area _GSFINAL
                             50 	.area _GSINIT
                             51 ;--------------------------------------------------------
                             52 ; Home
                             53 ;--------------------------------------------------------
                             54 	.area _HOME
                             55 	.area _HOME
                             56 ;--------------------------------------------------------
                             57 ; code
                             58 ;--------------------------------------------------------
                             59 	.area _CODE
                             60 ;src/main.c:27: void dibujar_personaje(){
                             61 ;	---------------------------------
                             62 ; Function dibujar_personaje
                             63 ; ---------------------------------
   0000                      64 _dibujar_personaje::
                             65 ;src/main.c:29: pvmem = cpct_getScreenPtr(CPCT_VMEM_START,prota.x,prota.y);
   0000 21r01r00      [10]   66 	ld	hl, #_prota + 1
   0003 56            [ 7]   67 	ld	d, (hl)
   0004 21r00r00      [10]   68 	ld	hl, #_prota + 0
   0007 5E            [ 7]   69 	ld	e, (hl)
   0008 D5            [11]   70 	push	de
   0009 21 00 C0      [10]   71 	ld	hl, #0xc000
   000C E5            [11]   72 	push	hl
   000D CDr00r00      [17]   73 	call	_cpct_getScreenPtr
   0010 4D            [ 4]   74 	ld	c, l
   0011 44            [ 4]   75 	ld	b, h
                             76 ;src/main.c:30: cpct_drawSprite(prota.sprite,pvmem,G_PJ_0_W,G_PJ_0_H);
   0012 2Ar02r00      [16]   77 	ld	hl, (#_prota + 2)
   0015 11 09 1B      [10]   78 	ld	de, #0x1b09
   0018 D5            [11]   79 	push	de
   0019 C5            [11]   80 	push	bc
   001A E5            [11]   81 	push	hl
   001B CDr00r00      [17]   82 	call	_cpct_drawSprite
   001E C9            [10]   83 	ret
                             84 ;src/main.c:32: void mover_personaje(){
                             85 ;	---------------------------------
                             86 ; Function mover_personaje
                             87 ; ---------------------------------
   001F                      88 _mover_personaje::
                             89 ;src/main.c:33: if(cpct_isKeyPressed(Key_CursorRight)){
   001F 21 00 02      [10]   90 	ld	hl, #0x0200
   0022 CDr00r00      [17]   91 	call	_cpct_isKeyPressed
   0025 7D            [ 4]   92 	ld	a, l
   0026 B7            [ 4]   93 	or	a, a
   0027 28 09         [12]   94 	jr	Z,00107$
                             95 ;src/main.c:34: prota.x++;
   0029 01r00r00      [10]   96 	ld	bc, #_prota+0
   002C 0A            [ 7]   97 	ld	a, (bc)
   002D 3C            [ 4]   98 	inc	a
   002E 02            [ 7]   99 	ld	(bc), a
                            100 ;src/main.c:35: dibujar_personaje();
   002F C3r00r00      [10]  101 	jp  _dibujar_personaje
   0032                     102 00107$:
                            103 ;src/main.c:36: }else if(cpct_isKeyPressed(Key_CursorLeft)){
   0032 21 01 01      [10]  104 	ld	hl, #0x0101
   0035 CDr00r00      [17]  105 	call	_cpct_isKeyPressed
   0038 7D            [ 4]  106 	ld	a, l
   0039 B7            [ 4]  107 	or	a, a
   003A C0            [11]  108 	ret	NZ
                            109 ;src/main.c:38: }else if(cpct_isKeyPressed(Key_CursorUp)){
   003B 21 00 01      [10]  110 	ld	hl, #0x0100
   003E C3r00r00      [10]  111 	jp  _cpct_isKeyPressed
                            112 ;src/main.c:45: void init(){
                            113 ;	---------------------------------
                            114 ; Function init
                            115 ; ---------------------------------
   0041                     116 _init::
                            117 ;src/main.c:47: cpct_disableFirmware();
   0041 CDr00r00      [17]  118 	call	_cpct_disableFirmware
                            119 ;src/main.c:49: cpct_memset(CPCT_VMEM_START, 0, 0x4000);
   0044 21 00 40      [10]  120 	ld	hl, #0x4000
   0047 E5            [11]  121 	push	hl
   0048 AF            [ 4]  122 	xor	a, a
   0049 F5            [11]  123 	push	af
   004A 33            [ 6]  124 	inc	sp
   004B 26 C0         [ 7]  125 	ld	h, #0xc0
   004D E5            [11]  126 	push	hl
   004E CDr00r00      [17]  127 	call	_cpct_memset
                            128 ;src/main.c:50: cpct_setVideoMode(0);
   0051 2E 00         [ 7]  129 	ld	l, #0x00
   0053 CDr00r00      [17]  130 	call	_cpct_setVideoMode
                            131 ;src/main.c:51: cpct_setBorder(HW_BLACK);
   0056 21 10 14      [10]  132 	ld	hl, #0x1410
   0059 E5            [11]  133 	push	hl
   005A CDr00r00      [17]  134 	call	_cpct_setPALColour
                            135 ;src/main.c:53: cpct_setPalette(g_palette, 16);
   005D 21 10 00      [10]  136 	ld	hl, #0x0010
   0060 E5            [11]  137 	push	hl
   0061 21r00r00      [10]  138 	ld	hl, #_g_palette
   0064 E5            [11]  139 	push	hl
   0065 CDr00r00      [17]  140 	call	_cpct_setPalette
                            141 ;src/main.c:56: pvmem = cpct_getScreenPtr(CPCT_VMEM_START,prota.x,prota.y);
   0068 21r01r00      [10]  142 	ld	hl, #(_prota + 0x0001) + 0
   006B 56            [ 7]  143 	ld	d, (hl)
   006C 21r00r00      [10]  144 	ld	hl, #_prota + 0
   006F 5E            [ 7]  145 	ld	e, (hl)
   0070 D5            [11]  146 	push	de
   0071 21 00 C0      [10]  147 	ld	hl, #0xc000
   0074 E5            [11]  148 	push	hl
   0075 CDr00r00      [17]  149 	call	_cpct_getScreenPtr
                            150 ;src/main.c:59: prota.x=20;
   0078 21r00r00      [10]  151 	ld	hl, #_prota
   007B 36 14         [10]  152 	ld	(hl), #0x14
                            153 ;src/main.c:60: prota.y=15;
   007D 21r01r00      [10]  154 	ld	hl, #(_prota + 0x0001)
   0080 36 0F         [10]  155 	ld	(hl), #0x0f
                            156 ;src/main.c:61: prota.sprite=g_PJ_0;
   0082 21r00r00      [10]  157 	ld	hl, #_g_PJ_0
   0085 22r02r00      [16]  158 	ld	((_prota + 0x0002)), hl
   0088 C9            [10]  159 	ret
                            160 ;src/main.c:66: void main(void) {
                            161 ;	---------------------------------
                            162 ; Function main
                            163 ; ---------------------------------
   0089                     164 _main::
                            165 ;src/main.c:67: init();
   0089 CDr41r00      [17]  166 	call	_init
                            167 ;src/main.c:70: while (1){
   008C                     168 00104$:
                            169 ;src/main.c:71: cpct_scanKeyboard_if();
   008C CDr00r00      [17]  170 	call	_cpct_scanKeyboard_if
                            171 ;src/main.c:72: if(cpct_isAnyKeyPressed_f){//con f mas rapido pero mas memoria
   008F 3Es00         [ 7]  172 	ld	a, #>(_cpct_isAnyKeyPressed_f)
   0091 F6r00         [ 7]  173 	or	a,#<(_cpct_isAnyKeyPressed_f)
   0093 28 06         [12]  174 	jr	Z,00102$
                            175 ;src/main.c:73: mover_personaje();
   0095 CDr1Fr00      [17]  176 	call	_mover_personaje
                            177 ;src/main.c:74: dibujar_personaje();
   0098 CDr00r00      [17]  178 	call	_dibujar_personaje
   009B                     179 00102$:
                            180 ;src/main.c:76: cpct_waitVSYNC();
   009B CDr00r00      [17]  181 	call	_cpct_waitVSYNC
   009E 18 EC         [12]  182 	jr	00104$
                            183 	.area _CODE
                            184 	.area _INITIALIZER
                            185 	.area _CABS (ABS)
